target datalayout = "e-m:e-p270:32:32-p271:32:32-p272:64:64-i64:64-i128:128-f80:128-n8:16:32:64-S128"
target triple = "x86_64-pc-linux-gnu"

@.str = private unnamed_addr constant [73 x i8] c"cvc5 can't solve field problems since it was not configured with --cocoa\00", align 1
@_ZTIN4cvc58internal14LogicExceptionE = linkonce_odr hidden constant { ptr, ptr, ptr } { ptr getelementptr inbounds (ptr, ptr @_ZTVN10__cxxabiv120__si_class_type_infoE, i64 2), ptr @_ZTSN4cvc58internal14LogicExceptionE, ptr @_ZTIN4cvc58internal9ExceptionE }, comdat, align 8

; Function Attrs: mustprogress uwtable
define hidden void @_ZN4cvc58internal6theory2ff7noCoCoAEv() #4 personality ptr @__gxx_personality_v0 {
  %1 = alloca ptr, align 8
  %2 = alloca i32, align 4
  %3 = call ptr @__cxa_allocate_exception(i64 40) #3
  invoke void @_ZN4cvc58internal14LogicExceptionC2EPKc(ptr noundef nonnull align 8 dereferenceable(40) %3, ptr noundef @.str)
          to label %4 unwind label %5

4:                                                ; preds = %0
  call void @__cxa_throw(ptr %3, ptr @_ZTIN4cvc58internal14LogicExceptionE, ptr @_ZN4cvc58internal9ExceptionD2Ev) #18
  unreachable

5:                                                ; preds = %0
  %6 = landingpad { ptr, i32 }
          cleanup
  %7 = extractvalue { ptr, i32 } %6, 0
  store ptr %7, ptr %1, align 8
  %8 = extractvalue { ptr, i32 } %6, 1
  store i32 %8, ptr %2, align 4
  call void @__cxa_free_exception(ptr %3) #3
  br label %9

9:                                                ; preds = %5
  %10 = load ptr, ptr %1, align 8
  %11 = load i32, ptr %2, align 4
  %12 = insertvalue { ptr, i32 } poison, ptr %10, 0
  %13 = insertvalue { ptr, i32 } %12, i32 %11, 1
  resume { ptr, i32 } %13
}

; Function Attrs: mustprogress uwtable
define hidden void @_ZN4cvc58internal6theory2ff18TheoryFiniteFields10notifyFactENS0_12NodeTemplateILb0EEEbS5_b(ptr noundef nonnull align 8 dereferenceable(768) %0, ptr noundef %1, i1 noundef zeroext %2, ptr noundef %3, i1 noundef zeroext %4) unnamed_addr #4 align 2 {
  %6 = alloca ptr, align 8
  %7 = alloca ptr, align 8
  %8 = alloca i8, align 1
  %9 = alloca ptr, align 8
  %10 = alloca i8, align 1
  store ptr %0, ptr %6, align 8, !tbaa !14
  store ptr %1, ptr %7, align 8, !tbaa !277
  %11 = zext i1 %2 to i8
  store i8 %11, ptr %8, align 1, !tbaa !279
  store ptr %3, ptr %9, align 8, !tbaa !277
  %12 = zext i1 %4 to i8
  store i8 %12, ptr %10, align 1, !tbaa !279
  call void @_ZN4cvc58internal6theory2ff7noCoCoAEv()
  ret void
}