; Function Attrs: mustprogress noreturn uwtable
define hidden void @_ZN4cvc58internal6theory2ff18TheoryFiniteFields10notifyFactENS0_12NodeTemplateILb0EEEbS5_b(ptr nonnull readnone align 8 captures(none) %0, ptr readnone captures(none) %1, i1 zeroext %2, ptr readnone captures(none) %3, i1 zeroext %4) unnamed_addr #3 align 2 personality ptr @__gxx_personality_v0 {
  %6 = tail call ptr @__cxa_allocate_exception(i64 40) #24
  invoke void @_ZN4cvc58internal14LogicExceptionC2EPKc(ptr noundef nonnull align 8 dereferenceable(40) %6, ptr noundef nonnull @.str)
          to label %7 unwind label %8

7:                                                ; preds = %5
  tail call void @__cxa_throw(ptr nonnull %6, ptr nonnull @_ZTIN4cvc58internal14LogicExceptionE, ptr nonnull @_ZN4cvc58internal9ExceptionD2Ev) #25
  unreachable

8:                                                ; preds = %5
  %9 = landingpad { ptr, i32 }
          cleanup
  tail call void @__cxa_free_exception(ptr nonnull %6) #24
  resume { ptr, i32 } %9
}